target datalayout = "e-m:e-p270:32:32-p271:32:32-p272:64:64-i64:64-i128:128-f80:128-n8:16:32:64-S128"
target triple = "x86_64-pc-linux-gnu"

@hf_gsm_sms_coding_group_bits2 = internal global i32 0, align 4
@hf_gsm_sms_coding_group_bits4 = internal global i32 0, align 4
@hf_gsm_sms_tp_dcs = internal global i32 0, align 4
@hf_gsm_sms_dcs_text_compressed = internal global i32 0, align 4
@hf_gsm_sms_dcs_message_class_defined = internal global i32 0, align 4
@hf_gsm_sms_dcs_character_set = internal global i32 0, align 4
@hf_gsm_sms_dcs_message_class = internal global i32 0, align 4
@hf_gsm_sms_dcs_indication_sense = internal global i32 0, align 4
@hf_gsm_sms_dcs_reserved04 = internal global i32 0, align 4
@hf_gsm_sms_dcs_reserved08 = internal global i32 0, align 4
@hf_gsm_sms_dcs_message_waiting = internal global i32 0, align 4
@hf_gsm_sms_dcs_message_coding = internal global i32 0, align 4
@hf_gsm_sms_gsm_7_bit_default_alphabet = internal global i32 0, align 4
@ett_dcs = internal global i32 0, align 4

; Function Attrs: null_pointer_is_valid sspstrong uwtable
define internal void @dis_field_dcs(ptr noundef %0, ptr noundef %1, i32 noundef %2, i8 noundef zeroext %3, ptr noundef %4, ptr noundef %5) #0 {
  %7 = alloca ptr, align 8
  %8 = alloca ptr, align 8
  %9 = alloca i32, align 4
  %10 = alloca i8, align 1
  %11 = alloca ptr, align 8
  %12 = alloca ptr, align 8
  %13 = alloca ptr, align 8
  %14 = alloca ptr, align 8
  %15 = alloca i8, align 1
  %16 = alloca i8, align 1
  %17 = alloca i8, align 1
  %18 = alloca i32, align 4
  store ptr %0, ptr %7, align 8
  store ptr %1, ptr %8, align 8
  store i32 %2, ptr %9, align 4
  store i8 %3, ptr %10, align 1
  store ptr %4, ptr %11, align 8
  store ptr %5, ptr %12, align 8
  call void @llvm.lifetime.start.p0(i64 8, ptr %13) #13
  call void @llvm.lifetime.start.p0(i64 8, ptr %14) #13
  call void @llvm.lifetime.start.p0(i64 1, ptr %15) #13
  call void @llvm.lifetime.start.p0(i64 1, ptr %16) #13
  call void @llvm.lifetime.start.p0(i64 1, ptr %17) #13
  %19 = load ptr, ptr %11, align 8
  store i32 0, ptr %19, align 4
  %20 = load ptr, ptr %12, align 8
  store i8 0, ptr %20, align 1
  %21 = load ptr, ptr %8, align 8
  %22 = load i32, ptr @hf_gsm_sms_tp_dcs, align 4
  %23 = load ptr, ptr %7, align 8
  %24 = load i32, ptr %9, align 4
  %25 = call ptr @proto_tree_add_item(ptr noundef %21, i32 noundef %22, ptr noundef %23, i32 noundef %24, i32 noundef 1, i32 noundef 0)
  store ptr %25, ptr %13, align 8
  %26 = load ptr, ptr %13, align 8
  %27 = load i32, ptr @ett_dcs, align 4
  %28 = call ptr @proto_item_add_subtree(ptr noundef %26, i32 noundef %27)
  store ptr %28, ptr %14, align 8
  %29 = load i8, ptr %10, align 1
  %30 = zext i8 %29 to i32
  %31 = and i32 %30, 128
  %32 = icmp ne i32 %31, 0
  br i1 %32, label %33, label %39

33:                                               ; preds = %6
  %34 = load ptr, ptr %14, align 8
  %35 = load i32, ptr @hf_gsm_sms_coding_group_bits4, align 4
  %36 = load ptr, ptr %7, align 8
  %37 = load i32, ptr %9, align 4
  %38 = call ptr @proto_tree_add_item(ptr noundef %34, i32 noundef %35, ptr noundef %36, i32 noundef %37, i32 noundef 1, i32 noundef 0)
  br label %45

39:                                               ; preds = %6
  %40 = load ptr, ptr %14, align 8
  %41 = load i32, ptr @hf_gsm_sms_coding_group_bits2, align 4
  %42 = load ptr, ptr %7, align 8
  %43 = load i32, ptr %9, align 4
  %44 = call ptr @proto_tree_add_item(ptr noundef %40, i32 noundef %41, ptr noundef %42, i32 noundef %43, i32 noundef 1, i32 noundef 0)
  br label %45

45:                                               ; preds = %39, %33
  %46 = load i8, ptr %10, align 1
  %47 = zext i8 %46 to i32
  %48 = icmp eq i32 %47, 0
  br i1 %48, label %49, label %56

49:                                               ; preds = %45
  %50 = load ptr, ptr %14, align 8
  %51 = load i32, ptr @hf_gsm_sms_gsm_7_bit_default_alphabet, align 4
  %52 = load ptr, ptr %7, align 8
  %53 = load i32, ptr %9, align 4
  %54 = call ptr @proto_tree_add_item(ptr noundef %50, i32 noundef %51, ptr noundef %52, i32 noundef %53, i32 noundef 1, i32 noundef 0)
  %55 = load ptr, ptr %11, align 8
  store i32 1, ptr %55, align 4
  store i32 1, ptr %18, align 4
  br label %166

56:                                               ; preds = %45
  store i8 0, ptr %15, align 1
  store i8 0, ptr %16, align 1
  store i8 0, ptr %17, align 1
  %57 = load i8, ptr %10, align 1
  %58 = zext i8 %57 to i32
  %59 = and i32 %58, 192
  %60 = ashr i32 %59, 6
  switch i32 %60, label %77 [
    i32 0, label %61
    i32 1, label %62
    i32 2, label %63
    i32 3, label %64
  ]

61:                                               ; preds = %56
  store i8 1, ptr %15, align 1
  br label %77

62:                                               ; preds = %56
  store i8 1, ptr %15, align 1
  br label %77

63:                                               ; preds = %56
  store i32 1, ptr %18, align 4
  br label %166

64:                                               ; preds = %56
  %65 = load i8, ptr %10, align 1
  %66 = zext i8 %65 to i32
  %67 = and i32 %66, 48
  %68 = ashr i32 %67, 4
  switch i32 %68, label %76 [
    i32 0, label %69
    i32 1, label %71
    i32 2, label %73
    i32 3, label %75
  ]

69:                                               ; preds = %64
  store i8 1, ptr %16, align 1
  %70 = load ptr, ptr %11, align 8
  store i32 1, ptr %70, align 4
  br label %76

71:                                               ; preds = %64
  store i8 1, ptr %16, align 1
  %72 = load ptr, ptr %11, align 8
  store i32 1, ptr %72, align 4
  br label %76

73:                                               ; preds = %64
  store i8 1, ptr %16, align 1
  %74 = load ptr, ptr %11, align 8
  store i32 4, ptr %74, align 4
  br label %76

75:                                               ; preds = %64
  store i8 1, ptr %17, align 1
  br label %76

76:                                               ; preds = %64, %75, %73, %71, %69
  br label %77

77:                                               ; preds = %56, %76, %62, %61
  %78 = load i8, ptr %15, align 1, !range !9, !noundef !10
  %79 = trunc i8 %78 to i1
  br i1 %79, label %80, label %119

80:                                               ; preds = %77
  %81 = load i8, ptr %10, align 1
  %82 = zext i8 %81 to i32
  %83 = and i32 %82, 32
  %84 = ashr i32 %83, 5
  %85 = icmp ne i32 %84, 0
  %86 = load ptr, ptr %12, align 8
  %87 = zext i1 %85 to i8
  store i8 %87, ptr %86, align 1
  %88 = load ptr, ptr %14, align 8
  %89 = load i32, ptr @hf_gsm_sms_dcs_text_compressed, align 4
  %90 = load ptr, ptr %7, align 8
  %91 = load i32, ptr %9, align 4
  %92 = call ptr @proto_tree_add_item(ptr noundef %88, i32 noundef %89, ptr noundef %90, i32 noundef %91, i32 noundef 1, i32 noundef 0)
  %93 = load ptr, ptr %14, align 8
  %94 = load i32, ptr @hf_gsm_sms_dcs_message_class_defined, align 4
  %95 = load ptr, ptr %7, align 8
  %96 = load i32, ptr %9, align 4
  %97 = call ptr @proto_tree_add_item(ptr noundef %93, i32 noundef %94, ptr noundef %95, i32 noundef %96, i32 noundef 1, i32 noundef 0)
  %98 = load i8, ptr %10, align 1
  %99 = zext i8 %98 to i32
  %100 = and i32 %99, 12
  %101 = ashr i32 %100, 2
  switch i32 %101, label %108 [
    i32 0, label %102
    i32 1, label %104
    i32 2, label %106
    i32 3, label %108
  ]

102:                                              ; preds = %80
  %103 = load ptr, ptr %11, align 8
  store i32 1, ptr %103, align 4
  br label %108

104:                                              ; preds = %80
  %105 = load ptr, ptr %11, align 8
  store i32 0, ptr %105, align 4
  br label %108

106:                                              ; preds = %80
  %107 = load ptr, ptr %11, align 8
  store i32 4, ptr %107, align 4
  br label %108

108:                                              ; preds = %80, %80, %106, %104, %102
  %109 = load ptr, ptr %14, align 8
  %110 = load i32, ptr @hf_gsm_sms_dcs_character_set, align 4
  %111 = load ptr, ptr %7, align 8
  %112 = load i32, ptr %9, align 4
  %113 = call ptr @proto_tree_add_item(ptr noundef %109, i32 noundef %110, ptr noundef %111, i32 noundef %112, i32 noundef 1, i32 noundef 0)
  %114 = load ptr, ptr %14, align 8
  %115 = load i32, ptr @hf_gsm_sms_dcs_message_class, align 4
  %116 = load ptr, ptr %7, align 8
  %117 = load i32, ptr %9, align 4
  %118 = call ptr @proto_tree_add_item(ptr noundef %114, i32 noundef %115, ptr noundef %116, i32 noundef %117, i32 noundef 1, i32 noundef 0)
  br label %165

119:                                              ; preds = %77
  %120 = load i8, ptr %16, align 1, !range !9, !noundef !10
  %121 = trunc i8 %120 to i1
  br i1 %121, label %122, label %138

122:                                              ; preds = %119
  %123 = load ptr, ptr %14, align 8
  %124 = load i32, ptr @hf_gsm_sms_dcs_indication_sense, align 4
  %125 = load ptr, ptr %7, align 8
  %126 = load i32, ptr %9, align 4
  %127 = call ptr @proto_tree_add_item(ptr noundef %123, i32 noundef %124, ptr noundef %125, i32 noundef %126, i32 noundef 1, i32 noundef 0)
  %128 = load ptr, ptr %14, align 8
  %129 = load i32, ptr @hf_gsm_sms_dcs_reserved04, align 4
  %130 = load ptr, ptr %7, align 8
  %131 = load i32, ptr %9, align 4
  %132 = call ptr @proto_tree_add_item(ptr noundef %128, i32 noundef %129, ptr noundef %130, i32 noundef %131, i32 noundef 1, i32 noundef 0)
  %133 = load ptr, ptr %14, align 8
  %134 = load i32, ptr @hf_gsm_sms_dcs_message_waiting, align 4
  %135 = load ptr, ptr %7, align 8
  %136 = load i32, ptr %9, align 4
  %137 = call ptr @proto_tree_add_item(ptr noundef %133, i32 noundef %134, ptr noundef %135, i32 noundef %136, i32 noundef 1, i32 noundef 0)
  br label %164

138:                                              ; preds = %119
  %139 = load i8, ptr %17, align 1, !range !9, !noundef !10
  %140 = trunc i8 %139 to i1
  br i1 %140, label %141, label %163

141:                                              ; preds = %138
  %142 = load i8, ptr %10, align 1
  %143 = zext i8 %142 to i32
  %144 = and i32 %143, 4
  %145 = icmp ne i32 %144, 0
  %146 = select i1 %145, i32 0, i32 1
  %147 = load ptr, ptr %11, align 8
  store i32 %146, ptr %147, align 4
  %148 = load ptr, ptr %14, align 8
  %149 = load i32, ptr @hf_gsm_sms_dcs_reserved08, align 4
  %150 = load ptr, ptr %7, align 8
  %151 = load i32, ptr %9, align 4
  %152 = call ptr @proto_tree_add_item(ptr noundef %148, i32 noundef %149, ptr noundef %150, i32 noundef %151, i32 noundef 1, i32 noundef 0)
  %153 = load ptr, ptr %14, align 8
  %154 = load i32, ptr @hf_gsm_sms_dcs_message_coding, align 4
  %155 = load ptr, ptr %7, align 8
  %156 = load i32, ptr %9, align 4
  %157 = call ptr @proto_tree_add_item(ptr noundef %153, i32 noundef %154, ptr noundef %155, i32 noundef %156, i32 noundef 1, i32 noundef 0)
  %158 = load ptr, ptr %14, align 8
  %159 = load i32, ptr @hf_gsm_sms_dcs_message_class, align 4
  %160 = load ptr, ptr %7, align 8
  %161 = load i32, ptr %9, align 4
  %162 = call ptr @proto_tree_add_item(ptr noundef %158, i32 noundef %159, ptr noundef %160, i32 noundef %161, i32 noundef 1, i32 noundef 0)
  br label %163

163:                                              ; preds = %141, %138
  br label %164

164:                                              ; preds = %163, %122
  br label %165

165:                                              ; preds = %164, %108
  store i32 0, ptr %18, align 4
  br label %166

166:                                              ; preds = %165, %63, %49
  call void @llvm.lifetime.end.p0(i64 1, ptr %17) #13
  call void @llvm.lifetime.end.p0(i64 1, ptr %16) #13
  call void @llvm.lifetime.end.p0(i64 1, ptr %15) #13
  call void @llvm.lifetime.end.p0(i64 8, ptr %14) #13
  call void @llvm.lifetime.end.p0(i64 8, ptr %13) #13
  %167 = load i32, ptr %18, align 4
  switch i32 %167, label %169 [
    i32 0, label %168
    i32 1, label %168
  ]

168:                                              ; preds = %166, %166
  ret void

169:                                              ; preds = %166
  unreachable
}